target datalayout = "e-m:e-p270:32:32-p271:32:32-p272:64:64-i64:64-i128:128-f80:128-n8:16:32:64-S128"
target triple = "x86_64-pc-linux-gnu"

%struct._ColorData = type { ptr, i32, ptr, ptr, ptr, ptr, ptr, ptr, ptr, ptr, i32, i32 }

; Function Attrs: nounwind uwtable
define void @initInverseGrayLut(ptr noundef %0, i32 noundef %1, ptr noundef %2) #0 {
  %4 = alloca ptr, align 8
  %5 = alloca i32, align 4
  %6 = alloca ptr, align 8
  %7 = alloca ptr, align 8
  %8 = alloca i32, align 4
  %9 = alloca i32, align 4
  %10 = alloca i32, align 4
  %11 = alloca i32, align 4
  %12 = alloca i32, align 4
  %13 = alloca i32, align 4
  %14 = alloca i32, align 4
  %15 = alloca i32, align 4
  store ptr %0, ptr %4, align 8
  store i32 %1, ptr %5, align 4
  store ptr %2, ptr %6, align 8
  %16 = load ptr, ptr %6, align 8
  %17 = icmp ne ptr %16, null
  br i1 %17, label %19, label %18

18:                                               ; preds = %3
  br label %133

19:                                               ; preds = %3
  %20 = call noalias ptr @calloc(i64 noundef 256, i64 noundef 4) #6
  store ptr %20, ptr %7, align 8
  %21 = load ptr, ptr %7, align 8
  %22 = icmp ne ptr %21, null
  br i1 %22, label %24, label %23

23:                                               ; preds = %19
  br label %133

24:                                               ; preds = %19
  %25 = load ptr, ptr %7, align 8
  %26 = load ptr, ptr %6, align 8
  %27 = getelementptr inbounds %struct._ColorData, ptr %26, i32 0, i32 9
  store ptr %25, ptr %27, align 8
  store i32 0, ptr %11, align 4
  br label %28

28:                                               ; preds = %36, %24
  %29 = load i32, ptr %11, align 4
  %30 = icmp slt i32 %29, 256
  br i1 %30, label %31, label %39

31:                                               ; preds = %28
  %32 = load ptr, ptr %7, align 8
  %33 = load i32, ptr %11, align 4
  %34 = sext i32 %33 to i64
  %35 = getelementptr inbounds i32, ptr %32, i64 %34
  store i32 -1, ptr %35, align 4
  br label %36

36:                                               ; preds = %31
  %37 = load i32, ptr %11, align 4
  %38 = add nsw i32 %37, 1
  store i32 %38, ptr %11, align 4
  br label %28, !llvm.loop !6

39:                                               ; preds = %28
  store i32 0, ptr %11, align 4
  br label %40

40:                                               ; preds = %76, %39
  %41 = load i32, ptr %11, align 4
  %42 = load i32, ptr %5, align 4
  %43 = icmp slt i32 %41, %42
  br i1 %43, label %44, label %79

44:                                               ; preds = %40
  %45 = load ptr, ptr %4, align 8
  %46 = load i32, ptr %11, align 4
  %47 = sext i32 %46 to i64
  %48 = getelementptr inbounds i32, ptr %45, i64 %47
  %49 = load i32, ptr %48, align 4
  store i32 %49, ptr %15, align 4
  %50 = load i32, ptr %15, align 4
  %51 = icmp eq i32 %50, 0
  br i1 %51, label %52, label %53

52:                                               ; preds = %44
  br label %76

53:                                               ; preds = %44
  %54 = load i32, ptr %15, align 4
  %55 = ashr i32 %54, 16
  %56 = and i32 %55, 255
  store i32 %56, ptr %12, align 4
  %57 = load i32, ptr %15, align 4
  %58 = ashr i32 %57, 8
  %59 = and i32 %58, 255
  store i32 %59, ptr %13, align 4
  %60 = load i32, ptr %15, align 4
  %61 = and i32 %60, 255
  store i32 %61, ptr %14, align 4
  %62 = load i32, ptr %14, align 4
  %63 = load i32, ptr %12, align 4
  %64 = icmp eq i32 %62, %63
  br i1 %64, label %65, label %75

65:                                               ; preds = %53
  %66 = load i32, ptr %14, align 4
  %67 = load i32, ptr %13, align 4
  %68 = icmp eq i32 %66, %67
  br i1 %68, label %69, label %75

69:                                               ; preds = %65
  %70 = load i32, ptr %11, align 4
  %71 = load ptr, ptr %7, align 8
  %72 = load i32, ptr %14, align 4
  %73 = sext i32 %72 to i64
  %74 = getelementptr inbounds i32, ptr %71, i64 %73
  store i32 %70, ptr %74, align 4
  br label %75

75:                                               ; preds = %69, %65, %53
  br label %76

76:                                               ; preds = %75, %52
  %77 = load i32, ptr %11, align 4
  %78 = add nsw i32 %77, 1
  store i32 %78, ptr %11, align 4
  br label %40, !llvm.loop !8

79:                                               ; preds = %40
  store i32 -1, ptr %8, align 4
  store i32 -1, ptr %9, align 4
  store i32 0, ptr %10, align 4
  store i32 0, ptr %11, align 4
  br label %80

80:                                               ; preds = %130, %79
  %81 = load i32, ptr %11, align 4
  %82 = icmp slt i32 %81, 256
  br i1 %82, label %83, label %133

83:                                               ; preds = %80
  %84 = load ptr, ptr %7, align 8
  %85 = load i32, ptr %11, align 4
  %86 = sext i32 %85 to i64
  %87 = getelementptr inbounds i32, ptr %84, i64 %86
  %88 = load i32, ptr %87, align 4
  %89 = icmp slt i32 %88, 0
  br i1 %89, label %90, label %96

90:                                               ; preds = %83
  %91 = load i32, ptr %9, align 4
  %92 = load ptr, ptr %7, align 8
  %93 = load i32, ptr %11, align 4
  %94 = sext i32 %93 to i64
  %95 = getelementptr inbounds i32, ptr %92, i64 %94
  store i32 %91, ptr %95, align 4
  store i32 1, ptr %10, align 4
  br label %129

96:                                               ; preds = %83
  %97 = load ptr, ptr %7, align 8
  %98 = load i32, ptr %11, align 4
  %99 = sext i32 %98 to i64
  %100 = getelementptr inbounds i32, ptr %97, i64 %99
  %101 = load i32, ptr %100, align 4
  store i32 %101, ptr %9, align 4
  %102 = load i32, ptr %10, align 4
  %103 = icmp ne i32 %102, 0
  br i1 %103, label %104, label %127

104:                                              ; preds = %96
  %105 = load i32, ptr %8, align 4
  %106 = icmp slt i32 %105, 0
  br i1 %106, label %107, label %108

107:                                              ; preds = %104
  br label %113

108:                                              ; preds = %104
  %109 = load i32, ptr %11, align 4
  %110 = load i32, ptr %8, align 4
  %111 = add nsw i32 %109, %110
  %112 = sdiv i32 %111, 2
  br label %113

113:                                              ; preds = %108, %107
  %114 = phi i32 [ 0, %107 ], [ %112, %108 ]
  store i32 %114, ptr %8, align 4
  br label %115

115:                                              ; preds = %119, %113
  %116 = load i32, ptr %8, align 4
  %117 = load i32, ptr %11, align 4
  %118 = icmp slt i32 %116, %117
  br i1 %118, label %119, label %126

119:                                              ; preds = %115
  %120 = load i32, ptr %9, align 4
  %121 = load ptr, ptr %7, align 8
  %122 = load i32, ptr %8, align 4
  %123 = add nsw i32 %122, 1
  store i32 %123, ptr %8, align 4
  %124 = sext i32 %122 to i64
  %125 = getelementptr inbounds i32, ptr %121, i64 %124
  store i32 %120, ptr %125, align 4
  br label %115, !llvm.loop !9

126:                                              ; preds = %115
  br label %127

127:                                              ; preds = %126, %96
  %128 = load i32, ptr %11, align 4
  store i32 %128, ptr %8, align 4
  store i32 0, ptr %10, align 4
  br label %129

129:                                              ; preds = %127, %90
  br label %130

130:                                              ; preds = %129
  %131 = load i32, ptr %11, align 4
  %132 = add nsw i32 %131, 1
  store i32 %132, ptr %11, align 4
  br label %80, !llvm.loop !10

133:                                              ; preds = %80, %23, %18
  ret void
}