; Function Attrs: nofree nounwind uwtable
define void @initInverseGrayLut(ptr nocapture noundef readonly %0, i32 noundef %1, ptr noundef writeonly %2) local_unnamed_addr #0 {
  %.not = icmp eq ptr %2, null
  br i1 %.not, label %.loopexit56, label %4

4:                                                ; preds = %3
  %5 = tail call noalias dereferenceable_or_null(1024) ptr @calloc(i64 noundef 256, i64 noundef 4) #10
  %.not54 = icmp eq ptr %5, null
  br i1 %.not54, label %.loopexit56, label %.preheader57

.preheader57:                                     ; preds = %4
  %6 = getelementptr inbounds i8, ptr %2, i64 72
  store ptr %5, ptr %6, align 8
  tail call void @llvm.memset.p0.i64(ptr noundef nonnull align 4 dereferenceable(1024) %5, i8 -1, i64 1024, i1 false)
  %7 = icmp sgt i32 %1, 0
  br i1 %7, label %.lr.ph.preheader, label %.preheader.preheader

.lr.ph.preheader:                                 ; preds = %.preheader57
  %wide.trip.count = zext nneg i32 %1 to i64
  br label %.lr.ph

.lr.ph:                                           ; preds = %.lr.ph.preheader, %24
  %indvars.iv = phi i64 [ 0, %.lr.ph.preheader ], [ %indvars.iv.next, %24 ]
  %8 = getelementptr inbounds i32, ptr %0, i64 %indvars.iv
  %9 = load i32, ptr %8, align 4
  %10 = icmp eq i32 %9, 0
  br i1 %10, label %24, label %11

11:                                               ; preds = %.lr.ph
  %12 = lshr i32 %9, 16
  %13 = and i32 %12, 255
  %14 = and i32 %9, 255
  %15 = icmp eq i32 %14, %13
  br i1 %15, label %16, label %24

16:                                               ; preds = %11
  %17 = lshr i32 %9, 8
  %18 = and i32 %17, 255
  %19 = icmp eq i32 %13, %18
  br i1 %19, label %20, label %24

20:                                               ; preds = %16
  %21 = zext nneg i32 %13 to i64
  %22 = getelementptr inbounds i32, ptr %5, i64 %21
  %23 = trunc nuw nsw i64 %indvars.iv to i32
  store i32 %23, ptr %22, align 4
  br label %24

24:                                               ; preds = %11, %16, %20, %.lr.ph
  %indvars.iv.next = add nuw nsw i64 %indvars.iv, 1
  %exitcond.not = icmp eq i64 %indvars.iv.next, %wide.trip.count
  br i1 %exitcond.not, label %.preheader.preheader, label %.lr.ph, !llvm.loop !6

.preheader.preheader:                             ; preds = %24, %.preheader57
  br label %.preheader

.preheader:                                       ; preds = %.preheader.preheader, %.loopexit
  %indvars.iv73 = phi i64 [ %indvars.iv.next74, %.loopexit ], [ 0, %.preheader.preheader ]
  %.065 = phi i32 [ %.2, %.loopexit ], [ -1, %.preheader.preheader ]
  %.04264 = phi i32 [ %.143, %.loopexit ], [ -1, %.preheader.preheader ]
  %.04463 = phi i32 [ %.145, %.loopexit ], [ 0, %.preheader.preheader ]
  %25 = getelementptr inbounds i32, ptr %5, i64 %indvars.iv73
  %26 = load i32, ptr %25, align 4
  %27 = icmp slt i32 %26, 0
  br i1 %27, label %28, label %29

28:                                               ; preds = %.preheader
  store i32 %.04264, ptr %25, align 4
  br label %.loopexit

29:                                               ; preds = %.preheader
  %.not55 = icmp eq i32 %.04463, 0
  %30 = trunc nuw nsw i64 %indvars.iv73 to i32
  br i1 %.not55, label %.loopexit, label %31

31:                                               ; preds = %29
  %32 = icmp slt i32 %.065, 0
  %33 = add nuw nsw i32 %.065, %30
  %34 = lshr i32 %33, 1
  %35 = select i1 %32, i32 0, i32 %34
  %36 = zext nneg i32 %35 to i64
  %37 = icmp ugt i64 %indvars.iv73, %36
  br i1 %37, label %.lr.ph61, label %.loopexit

.lr.ph61:                                         ; preds = %31, %.lr.ph61
  %indvars.iv68 = phi i64 [ %indvars.iv.next69, %.lr.ph61 ], [ %36, %31 ]
  %indvars.iv.next69 = add nuw nsw i64 %indvars.iv68, 1
  %38 = getelementptr inbounds i32, ptr %5, i64 %indvars.iv68
  store i32 %26, ptr %38, align 4
  %exitcond72.not = icmp eq i64 %indvars.iv.next69, %indvars.iv73
  br i1 %exitcond72.not, label %.loopexit, label %.lr.ph61, !llvm.loop !8

.loopexit:                                        ; preds = %.lr.ph61, %31, %29, %28
  %.145 = phi i32 [ 1, %28 ], [ 0, %29 ], [ 0, %31 ], [ 0, %.lr.ph61 ]
  %.143 = phi i32 [ %.04264, %28 ], [ %26, %29 ], [ %26, %31 ], [ %26, %.lr.ph61 ]
  %.2 = phi i32 [ %.065, %28 ], [ %30, %29 ], [ %30, %31 ], [ %30, %.lr.ph61 ]
  %indvars.iv.next74 = add nuw nsw i64 %indvars.iv73, 1
  %exitcond76.not = icmp eq i64 %indvars.iv.next74, 256
  br i1 %exitcond76.not, label %.loopexit56, label %.preheader, !llvm.loop !9

.loopexit56:                                      ; preds = %.loopexit, %4, %3
  ret void
}